target datalayout = "e-m:e-p270:32:32-p271:32:32-p272:64:64-i64:64-i128:128-f80:128-n8:16:32:64-S128"
target triple = "x86_64-pc-linux-gnu"

; Function Attrs: nounwind uwtable
define internal double @compute_stressf(ptr noundef %0, ptr noundef %1, i32 noundef %2, i32 noundef %3, i32 noundef %4) #0 {
  %6 = alloca ptr, align 8
  %7 = alloca ptr, align 8
  %8 = alloca i32, align 4
  %9 = alloca i32, align 4
  %10 = alloca i32, align 4
  %11 = alloca i32, align 4
  %12 = alloca i32, align 4
  %13 = alloca i32, align 4
  %14 = alloca i32, align 4
  %15 = alloca i32, align 4
  %16 = alloca double, align 8
  %17 = alloca double, align 8
  %18 = alloca double, align 8
  store ptr %0, ptr %6, align 8, !tbaa !75
  store ptr %1, ptr %7, align 8, !tbaa !43
  store i32 %2, ptr %8, align 4, !tbaa !3
  store i32 %3, ptr %9, align 4, !tbaa !3
  store i32 %4, ptr %10, align 4, !tbaa !3
  call void @llvm.lifetime.start.p0(i64 4, ptr %11) #10
  call void @llvm.lifetime.start.p0(i64 4, ptr %12) #10
  call void @llvm.lifetime.start.p0(i64 4, ptr %13) #10
  call void @llvm.lifetime.start.p0(i64 4, ptr %14) #10
  call void @llvm.lifetime.start.p0(i64 4, ptr %15) #10
  call void @llvm.lifetime.start.p0(i64 8, ptr %16) #10
  call void @llvm.lifetime.start.p0(i64 8, ptr %17) #10
  call void @llvm.lifetime.start.p0(i64 8, ptr %18) #10
  store double 0.000000e+00, ptr %16, align 8, !tbaa !36
  store i32 0, ptr %15, align 4, !tbaa !3
  store i32 0, ptr %11, align 4, !tbaa !3
  br label %19

19:                                               ; preds = %146, %5
  %20 = load i32, ptr %11, align 4, !tbaa !3
  %21 = load i32, ptr %9, align 4, !tbaa !3
  %22 = sub nsw i32 %21, 1
  %23 = icmp slt i32 %20, %22
  br i1 %23, label %24, label %149

24:                                               ; preds = %19
  %25 = load i32, ptr %15, align 4, !tbaa !3
  %26 = add nsw i32 %25, 1
  store i32 %26, ptr %15, align 4, !tbaa !3
  store i32 1, ptr %12, align 4, !tbaa !3
  br label %27

27:                                               ; preds = %140, %24
  %28 = load i32, ptr %12, align 4, !tbaa !3
  %29 = load i32, ptr %9, align 4, !tbaa !3
  %30 = load i32, ptr %11, align 4, !tbaa !3
  %31 = sub nsw i32 %29, %30
  %32 = icmp slt i32 %28, %31
  br i1 %32, label %33, label %145

33:                                               ; preds = %27
  store double 0.000000e+00, ptr %17, align 8, !tbaa !36
  %34 = load i32, ptr %11, align 4, !tbaa !3
  %35 = load i32, ptr %12, align 4, !tbaa !3
  %36 = add nsw i32 %34, %35
  store i32 %36, ptr %14, align 4, !tbaa !3
  store i32 0, ptr %13, align 4, !tbaa !3
  br label %37

37:                                               ; preds = %84, %33
  %38 = load i32, ptr %13, align 4, !tbaa !3
  %39 = load i32, ptr %8, align 4, !tbaa !3
  %40 = icmp slt i32 %38, %39
  br i1 %40, label %41, label %87

41:                                               ; preds = %37
  %42 = load ptr, ptr %6, align 8, !tbaa !75
  %43 = load i32, ptr %13, align 4, !tbaa !3
  %44 = sext i32 %43 to i64
  %45 = getelementptr inbounds ptr, ptr %42, i64 %44
  %46 = load ptr, ptr %45, align 8, !tbaa !43
  %47 = load i32, ptr %11, align 4, !tbaa !3
  %48 = sext i32 %47 to i64
  %49 = getelementptr inbounds float, ptr %46, i64 %48
  %50 = load float, ptr %49, align 4, !tbaa !51
  %51 = load ptr, ptr %6, align 8, !tbaa !75
  %52 = load i32, ptr %13, align 4, !tbaa !3
  %53 = sext i32 %52 to i64
  %54 = getelementptr inbounds ptr, ptr %51, i64 %53
  %55 = load ptr, ptr %54, align 8, !tbaa !43
  %56 = load i32, ptr %14, align 4, !tbaa !3
  %57 = sext i32 %56 to i64
  %58 = getelementptr inbounds float, ptr %55, i64 %57
  %59 = load float, ptr %58, align 4, !tbaa !51
  %60 = fsub float %50, %59
  %61 = load ptr, ptr %6, align 8, !tbaa !75
  %62 = load i32, ptr %13, align 4, !tbaa !3
  %63 = sext i32 %62 to i64
  %64 = getelementptr inbounds ptr, ptr %61, i64 %63
  %65 = load ptr, ptr %64, align 8, !tbaa !43
  %66 = load i32, ptr %11, align 4, !tbaa !3
  %67 = sext i32 %66 to i64
  %68 = getelementptr inbounds float, ptr %65, i64 %67
  %69 = load float, ptr %68, align 4, !tbaa !51
  %70 = load ptr, ptr %6, align 8, !tbaa !75
  %71 = load i32, ptr %13, align 4, !tbaa !3
  %72 = sext i32 %71 to i64
  %73 = getelementptr inbounds ptr, ptr %70, i64 %72
  %74 = load ptr, ptr %73, align 8, !tbaa !43
  %75 = load i32, ptr %14, align 4, !tbaa !3
  %76 = sext i32 %75 to i64
  %77 = getelementptr inbounds float, ptr %74, i64 %76
  %78 = load float, ptr %77, align 4, !tbaa !51
  %79 = fsub float %69, %78
  %80 = fmul float %60, %79
  %81 = fpext float %80 to double
  %82 = load double, ptr %17, align 8, !tbaa !36
  %83 = fadd double %82, %81
  store double %83, ptr %17, align 8, !tbaa !36
  br label %84

84:                                               ; preds = %41
  %85 = load i32, ptr %13, align 4, !tbaa !3
  %86 = add nsw i32 %85, 1
  store i32 %86, ptr %13, align 4, !tbaa !3
  br label %37, !llvm.loop !144

87:                                               ; preds = %37
  %88 = load double, ptr %17, align 8, !tbaa !36
  %89 = call double @sqrt(double noundef %88) #10, !tbaa !3
  store double %89, ptr %17, align 8, !tbaa !36
  %90 = load i32, ptr %10, align 4, !tbaa !3
  %91 = icmp eq i32 %90, 2
  br i1 %91, label %92, label %116

92:                                               ; preds = %87
  %93 = load ptr, ptr %7, align 8, !tbaa !43
  %94 = load i32, ptr %15, align 4, !tbaa !3
  %95 = sext i32 %94 to i64
  %96 = getelementptr inbounds float, ptr %93, i64 %95
  %97 = load float, ptr %96, align 4, !tbaa !51
  %98 = fpext float %97 to double
  %99 = call double @sqrt(double noundef %98) #10, !tbaa !3
  %100 = fdiv double 1.000000e+00, %99
  store double %100, ptr %18, align 8, !tbaa !36
  %101 = load double, ptr %18, align 8, !tbaa !36
  %102 = load double, ptr %17, align 8, !tbaa !36
  %103 = fsub double %101, %102
  %104 = load double, ptr %18, align 8, !tbaa !36
  %105 = load double, ptr %17, align 8, !tbaa !36
  %106 = fsub double %104, %105
  %107 = fmul double %103, %106
  %108 = load ptr, ptr %7, align 8, !tbaa !43
  %109 = load i32, ptr %15, align 4, !tbaa !3
  %110 = sext i32 %109 to i64
  %111 = getelementptr inbounds float, ptr %108, i64 %110
  %112 = load float, ptr %111, align 4, !tbaa !51
  %113 = fpext float %112 to double
  %114 = load double, ptr %16, align 8, !tbaa !36
  %115 = call double @llvm.fmuladd.f64(double %107, double %113, double %114)
  store double %115, ptr %16, align 8, !tbaa !36
  br label %139

116:                                              ; preds = %87
  %117 = load ptr, ptr %7, align 8, !tbaa !43
  %118 = load i32, ptr %15, align 4, !tbaa !3
  %119 = sext i32 %118 to i64
  %120 = getelementptr inbounds float, ptr %117, i64 %119
  %121 = load float, ptr %120, align 4, !tbaa !51
  %122 = fpext float %121 to double
  %123 = fdiv double 1.000000e+00, %122
  store double %123, ptr %18, align 8, !tbaa !36
  %124 = load double, ptr %18, align 8, !tbaa !36
  %125 = load double, ptr %17, align 8, !tbaa !36
  %126 = fsub double %124, %125
  %127 = load double, ptr %18, align 8, !tbaa !36
  %128 = load double, ptr %17, align 8, !tbaa !36
  %129 = fsub double %127, %128
  %130 = fmul double %126, %129
  %131 = load ptr, ptr %7, align 8, !tbaa !43
  %132 = load i32, ptr %15, align 4, !tbaa !3
  %133 = sext i32 %132 to i64
  %134 = getelementptr inbounds float, ptr %131, i64 %133
  %135 = load float, ptr %134, align 4, !tbaa !51
  %136 = fpext float %135 to double
  %137 = load double, ptr %16, align 8, !tbaa !36
  %138 = call double @llvm.fmuladd.f64(double %130, double %136, double %137)
  store double %138, ptr %16, align 8, !tbaa !36
  br label %139

139:                                              ; preds = %116, %92
  br label %140

140:                                              ; preds = %139
  %141 = load i32, ptr %12, align 4, !tbaa !3
  %142 = add nsw i32 %141, 1
  store i32 %142, ptr %12, align 4, !tbaa !3
  %143 = load i32, ptr %15, align 4, !tbaa !3
  %144 = add nsw i32 %143, 1
  store i32 %144, ptr %15, align 4, !tbaa !3
  br label %27, !llvm.loop !145

145:                                              ; preds = %27
  br label %146

146:                                              ; preds = %145
  %147 = load i32, ptr %11, align 4, !tbaa !3
  %148 = add nsw i32 %147, 1
  store i32 %148, ptr %11, align 4, !tbaa !3
  br label %19, !llvm.loop !146

149:                                              ; preds = %19
  %150 = load double, ptr %16, align 8, !tbaa !36
  call void @llvm.lifetime.end.p0(i64 8, ptr %18) #10
  call void @llvm.lifetime.end.p0(i64 8, ptr %17) #10
  call void @llvm.lifetime.end.p0(i64 8, ptr %16) #10
  call void @llvm.lifetime.end.p0(i64 4, ptr %15) #10
  call void @llvm.lifetime.end.p0(i64 4, ptr %14) #10
  call void @llvm.lifetime.end.p0(i64 4, ptr %13) #10
  call void @llvm.lifetime.end.p0(i64 4, ptr %12) #10
  call void @llvm.lifetime.end.p0(i64 4, ptr %11) #10
  ret double %150
}