; Function Attrs: nofree nounwind memory(readwrite, inaccessiblemem: write) uwtable
define internal fastcc double @compute_stressf(ptr noundef readonly captures(none) %0, ptr noundef readonly captures(none) %1, i32 noundef %2, i32 noundef range(i32 2, 1) %3, i32 noundef range(i32 0, 4) %4) unnamed_addr #8 {
  %6 = add i32 %3, -1
  %7 = icmp sgt i32 %3, 1
  br i1 %7, label %.preheader.lr.ph, label %._crit_edge

.preheader.lr.ph:                                 ; preds = %5
  %8 = icmp sgt i32 %2, 0
  %9 = icmp eq i32 %4, 2
  br i1 %9, label %.preheader.lr.ph.split.us, label %.preheader.lr.ph.split

.preheader.lr.ph.split.us:                        ; preds = %.preheader.lr.ph
  br i1 %8, label %.preheader.us.us.preheader, label %.preheader.us

.preheader.us.us.preheader:                       ; preds = %.preheader.lr.ph.split.us
  %10 = zext nneg i32 %3 to i64
  %wide.trip.count167 = zext nneg i32 %6 to i64
  %invariant.op177 = add nsw i64 %10, -1
  %wide.trip.count151 = zext nneg i32 %2 to i64
  br label %.preheader.us.us

.preheader.us.us:                                 ; preds = %.preheader.us.us.preheader, %._crit_edge60.split.us.split.us.us.us
  %indvars.iv164 = phi i64 [ 0, %.preheader.us.us.preheader ], [ %indvars.iv.next165, %._crit_edge60.split.us.split.us.us.us ]
  %indvars.iv160 = phi i32 [ %3, %.preheader.us.us.preheader ], [ %indvars.iv.next161, %._crit_edge60.split.us.split.us.us.us ]
  %.04784.us.us = phi double [ 0.000000e+00, %.preheader.us.us.preheader ], [ %.1.lcssa.us.us, %._crit_edge60.split.us.split.us.us.us ]
  %.04883.us.us = phi i32 [ 0, %.preheader.us.us.preheader ], [ %.149.lcssa.us.us, %._crit_edge60.split.us.split.us.us.us ]
  %.14955.us.us = add i32 %.04883.us.us, 1
  %11 = icmp slt i64 %indvars.iv164, %invariant.op177
  br i1 %11, label %.lr.ph59.us.us, label %._crit_edge60.split.us.split.us.us.us

._crit_edge60.split.us.split.us.us.us.loopexit:   ; preds = %._crit_edge.us.us.us.us
  %12 = trunc nsw i64 %indvars.iv.next154 to i32
  br label %._crit_edge60.split.us.split.us.us.us

._crit_edge60.split.us.split.us.us.us:            ; preds = %._crit_edge60.split.us.split.us.us.us.loopexit, %.preheader.us.us
  %.1.lcssa.us.us = phi double [ %.04784.us.us, %.preheader.us.us ], [ %34, %._crit_edge60.split.us.split.us.us.us.loopexit ]
  %.149.lcssa.us.us = phi i32 [ %.14955.us.us, %.preheader.us.us ], [ %12, %._crit_edge60.split.us.split.us.us.us.loopexit ]
  %indvars.iv.next165 = add nuw nsw i64 %indvars.iv164, 1
  %indvars.iv.next161 = add i32 %indvars.iv160, -1
  %exitcond168.not = icmp eq i64 %indvars.iv.next165, %wide.trip.count167
  br i1 %exitcond168.not, label %._crit_edge, label %.preheader.us.us, !llvm.loop !127

.lr.ph59.us.us:                                   ; preds = %.preheader.us.us
  %13 = sext i32 %.14955.us.us to i64
  %wide.trip.count162 = zext i32 %indvars.iv160 to i64
  br label %.lr.ph.us.us.us.us

.lr.ph.us.us.us.us:                               ; preds = %._crit_edge.us.us.us.us, %.lr.ph59.us.us
  %indvars.iv155 = phi i64 [ %indvars.iv.next156, %._crit_edge.us.us.us.us ], [ 1, %.lr.ph59.us.us ]
  %indvars.iv153 = phi i64 [ %indvars.iv.next154, %._crit_edge.us.us.us.us ], [ %13, %.lr.ph59.us.us ]
  %.157.us.us.us.us = phi double [ %34, %._crit_edge.us.us.us.us ], [ %.04784.us.us, %.lr.ph59.us.us ]
  br label %14

14:                                               ; preds = %14, %.lr.ph.us.us.us.us
  %indvars.iv148 = phi i64 [ %indvars.iv.next149, %14 ], [ 0, %.lr.ph.us.us.us.us ]
  %.054.us.us.us.us = phi double [ %25, %14 ], [ 0.000000e+00, %.lr.ph.us.us.us.us ]
  %15 = getelementptr inbounds nuw ptr, ptr %0, i64 %indvars.iv148
  %16 = load ptr, ptr %15, align 8, !tbaa !92
  %17 = getelementptr inbounds nuw float, ptr %16, i64 %indvars.iv164
  %18 = load float, ptr %17, align 4, !tbaa !47
  %19 = getelementptr inbounds nuw float, ptr %16, i64 %indvars.iv155
  %20 = getelementptr inbounds nuw float, ptr %19, i64 %indvars.iv164
  %21 = load float, ptr %20, align 4, !tbaa !47
  %22 = fsub float %18, %21
  %23 = fmul float %22, %22
  %24 = fpext float %23 to double
  %25 = fadd double %.054.us.us.us.us, %24
  %indvars.iv.next149 = add nuw nsw i64 %indvars.iv148, 1
  %exitcond152.not = icmp eq i64 %indvars.iv.next149, %wide.trip.count151
  br i1 %exitcond152.not, label %._crit_edge.us.us.us.us, label %14, !llvm.loop !128

._crit_edge.us.us.us.us:                          ; preds = %14
  %26 = tail call double @sqrt(double noundef %25) #16, !tbaa !46
  %27 = getelementptr inbounds float, ptr %1, i64 %indvars.iv153
  %28 = load float, ptr %27, align 4, !tbaa !47
  %29 = fpext float %28 to double
  %30 = tail call double @sqrt(double noundef %29) #16, !tbaa !46
  %31 = fdiv double 1.000000e+00, %30
  %32 = fsub double %31, %26
  %33 = fmul double %32, %32
  %34 = tail call double @llvm.fmuladd.f64(double %33, double %29, double %.157.us.us.us.us)
  %indvars.iv.next156 = add nuw nsw i64 %indvars.iv155, 1
  %indvars.iv.next154 = add nsw i64 %indvars.iv153, 1
  %exitcond163.not = icmp eq i64 %indvars.iv.next156, %wide.trip.count162
  br i1 %exitcond163.not, label %._crit_edge60.split.us.split.us.us.us.loopexit, label %.lr.ph.us.us.us.us, !llvm.loop !129

.preheader.us:                                    ; preds = %.preheader.lr.ph.split.us, %._crit_edge60.split.us.split.us89
  %indvars.iv144 = phi i32 [ %indvars.iv.next145, %._crit_edge60.split.us.split.us89 ], [ %3, %.preheader.lr.ph.split.us ]
  %.04784.us = phi double [ %.1.lcssa.us, %._crit_edge60.split.us.split.us89 ], [ 0.000000e+00, %.preheader.lr.ph.split.us ]
  %.04883.us = phi i32 [ %.149.lcssa.us, %._crit_edge60.split.us.split.us89 ], [ 0, %.preheader.lr.ph.split.us ]
  %.05080.us = phi i32 [ %39, %._crit_edge60.split.us.split.us89 ], [ 0, %.preheader.lr.ph.split.us ]
  %35 = sub nsw i32 %3, %.05080.us
  %.14955.us = add i32 %.04883.us, 1
  %36 = icmp sgt i32 %35, 1
  br i1 %36, label %.lr.ph59.us.preheader, label %._crit_edge60.split.us.split.us89

.lr.ph59.us.preheader:                            ; preds = %.preheader.us
  %37 = sext i32 %.14955.us to i64
  br label %.lr.ph59.us

._crit_edge60.split.us.split.us89.loopexit:       ; preds = %.lr.ph59.us
  %38 = trunc nsw i64 %indvars.iv.next142 to i32
  br label %._crit_edge60.split.us.split.us89

._crit_edge60.split.us.split.us89:                ; preds = %._crit_edge60.split.us.split.us89.loopexit, %.preheader.us
  %.1.lcssa.us = phi double [ %.04784.us, %.preheader.us ], [ %46, %._crit_edge60.split.us.split.us89.loopexit ]
  %.149.lcssa.us = phi i32 [ %.14955.us, %.preheader.us ], [ %38, %._crit_edge60.split.us.split.us89.loopexit ]
  %39 = add nuw nsw i32 %.05080.us, 1
  %indvars.iv.next145 = add i32 %indvars.iv144, -1
  %exitcond147.not = icmp eq i32 %39, %6
  br i1 %exitcond147.not, label %._crit_edge, label %.preheader.us, !llvm.loop !127

.lr.ph59.us:                                      ; preds = %.lr.ph59.us.preheader, %.lr.ph59.us
  %indvars.iv141 = phi i64 [ %37, %.lr.ph59.us.preheader ], [ %indvars.iv.next142, %.lr.ph59.us ]
  %.157.us.us86 = phi double [ %.04784.us, %.lr.ph59.us.preheader ], [ %46, %.lr.ph59.us ]
  %.05256.us.us87 = phi i32 [ 1, %.lr.ph59.us.preheader ], [ %47, %.lr.ph59.us ]
  %40 = getelementptr inbounds float, ptr %1, i64 %indvars.iv141
  %41 = load float, ptr %40, align 4, !tbaa !47
  %42 = fpext float %41 to double
  %43 = tail call double @sqrt(double noundef %42) #16, !tbaa !46
  %44 = fdiv double 1.000000e+00, %43
  %45 = fmul double %44, %44
  %46 = tail call double @llvm.fmuladd.f64(double %45, double %42, double %.157.us.us86)
  %47 = add nuw nsw i32 %.05256.us.us87, 1
  %indvars.iv.next142 = add nsw i64 %indvars.iv141, 1
  %exitcond146.not = icmp eq i32 %47, %indvars.iv144
  br i1 %exitcond146.not, label %._crit_edge60.split.us.split.us89.loopexit, label %.lr.ph59.us, !llvm.loop !129

.preheader.lr.ph.split:                           ; preds = %.preheader.lr.ph
  %48 = add nsw i32 %3, -2
  br i1 %8, label %.preheader.us94.preheader, label %.preheader

.preheader.us94.preheader:                        ; preds = %.preheader.lr.ph.split
  %49 = zext nneg i32 %3 to i64
  %wide.trip.count139 = zext nneg i32 %6 to i64
  %invariant.op = add nsw i64 %49, -1
  %wide.trip.count = zext nneg i32 %2 to i64
  br label %.preheader.us94

.preheader.us94:                                  ; preds = %.preheader.us94.preheader, %._crit_edge60.split.split.us.us
  %indvars.iv136 = phi i64 [ 0, %.preheader.us94.preheader ], [ %indvars.iv.next137, %._crit_edge60.split.split.us.us ]
  %indvars.iv132 = phi i32 [ %3, %.preheader.us94.preheader ], [ %indvars.iv.next133, %._crit_edge60.split.split.us.us ]
  %indvars.iv127 = phi i32 [ %48, %.preheader.us94.preheader ], [ %indvars.iv.next128, %._crit_edge60.split.split.us.us ]
  %.04784.us95 = phi double [ 0.000000e+00, %.preheader.us94.preheader ], [ %.1.lcssa.us99, %._crit_edge60.split.split.us.us ]
  %.04883.us96 = phi i32 [ 0, %.preheader.us94.preheader ], [ %.149.lcssa.us100, %._crit_edge60.split.split.us.us ]
  %.14955.us98 = add i32 %.04883.us96, 1
  %50 = icmp slt i64 %indvars.iv136, %invariant.op
  br i1 %50, label %.lr.ph59.us101, label %._crit_edge60.split.split.us.us

._crit_edge60.split.split.us.us.loopexit:         ; preds = %._crit_edge.us72.us
  %51 = add i32 %53, %indvars.iv127
  br label %._crit_edge60.split.split.us.us

._crit_edge60.split.split.us.us:                  ; preds = %._crit_edge60.split.split.us.us.loopexit, %.preheader.us94
  %.1.lcssa.us99 = phi double [ %.04784.us95, %.preheader.us94 ], [ %73, %._crit_edge60.split.split.us.us.loopexit ]
  %.149.lcssa.us100 = phi i32 [ %.14955.us98, %.preheader.us94 ], [ %51, %._crit_edge60.split.split.us.us.loopexit ]
  %indvars.iv.next137 = add nuw nsw i64 %indvars.iv136, 1
  %indvars.iv.next128 = add i32 %indvars.iv127, -1
  %indvars.iv.next133 = add i32 %indvars.iv132, -1
  %exitcond140.not = icmp eq i64 %indvars.iv.next137, %wide.trip.count139
  br i1 %exitcond140.not, label %._crit_edge, label %.preheader.us94, !llvm.loop !127

.lr.ph59.us101:                                   ; preds = %.preheader.us94
  %52 = sext i32 %.14955.us98 to i64
  %53 = add i32 %.04883.us96, 2
  %wide.trip.count134 = zext i32 %indvars.iv132 to i64
  br label %.lr.ph.us71.us

.lr.ph.us71.us:                                   ; preds = %._crit_edge.us72.us, %.lr.ph59.us101
  %indvars.iv125 = phi i64 [ %indvars.iv.next126, %._crit_edge.us72.us ], [ 1, %.lr.ph59.us101 ]
  %indvars.iv123 = phi i64 [ %indvars.iv.next124, %._crit_edge.us72.us ], [ %52, %.lr.ph59.us101 ]
  %.157.us65.us = phi double [ %73, %._crit_edge.us72.us ], [ %.04784.us95, %.lr.ph59.us101 ]
  br label %54

54:                                               ; preds = %54, %.lr.ph.us71.us
  %indvars.iv119 = phi i64 [ %indvars.iv.next120, %54 ], [ 0, %.lr.ph.us71.us ]
  %.054.us69.us = phi double [ %65, %54 ], [ 0.000000e+00, %.lr.ph.us71.us ]
  %55 = getelementptr inbounds nuw ptr, ptr %0, i64 %indvars.iv119
  %56 = load ptr, ptr %55, align 8, !tbaa !92
  %57 = getelementptr inbounds nuw float, ptr %56, i64 %indvars.iv136
  %58 = load float, ptr %57, align 4, !tbaa !47
  %59 = getelementptr inbounds nuw float, ptr %56, i64 %indvars.iv125
  %60 = getelementptr inbounds nuw float, ptr %59, i64 %indvars.iv136
  %61 = load float, ptr %60, align 4, !tbaa !47
  %62 = fsub float %58, %61
  %63 = fmul float %62, %62
  %64 = fpext float %63 to double
  %65 = fadd double %.054.us69.us, %64
  %indvars.iv.next120 = add nuw nsw i64 %indvars.iv119, 1
  %exitcond122.not = icmp eq i64 %indvars.iv.next120, %wide.trip.count
  br i1 %exitcond122.not, label %._crit_edge.us72.us, label %54, !llvm.loop !128

._crit_edge.us72.us:                              ; preds = %54
  %66 = tail call double @sqrt(double noundef %65) #16, !tbaa !46
  %67 = getelementptr inbounds float, ptr %1, i64 %indvars.iv123
  %68 = load float, ptr %67, align 4, !tbaa !47
  %69 = fpext float %68 to double
  %70 = fdiv double 1.000000e+00, %69
  %71 = fsub double %70, %66
  %72 = fmul double %71, %71
  %73 = tail call double @llvm.fmuladd.f64(double %72, double %69, double %.157.us65.us)
  %indvars.iv.next126 = add nuw nsw i64 %indvars.iv125, 1
  %indvars.iv.next124 = add nsw i64 %indvars.iv123, 1
  %exitcond135.not = icmp eq i64 %indvars.iv.next126, %wide.trip.count134
  br i1 %exitcond135.not, label %._crit_edge60.split.split.us.us.loopexit, label %.lr.ph.us71.us, !llvm.loop !129

.preheader:                                       ; preds = %.preheader.lr.ph.split, %._crit_edge60.split.split
  %indvars.iv116 = phi i32 [ %indvars.iv.next117, %._crit_edge60.split.split ], [ %3, %.preheader.lr.ph.split ]
  %indvars.iv113 = phi i32 [ %indvars.iv.next114, %._crit_edge60.split.split ], [ %48, %.preheader.lr.ph.split ]
  %.04784 = phi double [ %.1.lcssa, %._crit_edge60.split.split ], [ 0.000000e+00, %.preheader.lr.ph.split ]
  %.04883 = phi i32 [ %.149.lcssa, %._crit_edge60.split.split ], [ 0, %.preheader.lr.ph.split ]
  %.05080 = phi i32 [ %86, %._crit_edge60.split.split ], [ 0, %.preheader.lr.ph.split ]
  %74 = sub nsw i32 %3, %.05080
  %.14955 = add i32 %.04883, 1
  %75 = icmp sgt i32 %74, 1
  br i1 %75, label %.lr.ph59.preheader, label %._crit_edge60.split.split

.lr.ph59.preheader:                               ; preds = %.preheader
  %76 = sext i32 %.14955 to i64
  %77 = add i32 %.04883, 2
  br label %.lr.ph59

.lr.ph59:                                         ; preds = %.lr.ph59.preheader, %.lr.ph59
  %indvars.iv = phi i64 [ %76, %.lr.ph59.preheader ], [ %indvars.iv.next, %.lr.ph59 ]
  %.157 = phi double [ %.04784, %.lr.ph59.preheader ], [ %83, %.lr.ph59 ]
  %.05256 = phi i32 [ 1, %.lr.ph59.preheader ], [ %84, %.lr.ph59 ]
  %78 = getelementptr inbounds float, ptr %1, i64 %indvars.iv
  %79 = load float, ptr %78, align 4, !tbaa !47
  %80 = fpext float %79 to double
  %81 = fdiv double 1.000000e+00, %80
  %82 = fmul double %81, %81
  %83 = tail call double @llvm.fmuladd.f64(double %82, double %80, double %.157)
  %84 = add nuw nsw i32 %.05256, 1
  %indvars.iv.next = add nsw i64 %indvars.iv, 1
  %exitcond.not = icmp eq i32 %84, %indvars.iv116
  br i1 %exitcond.not, label %._crit_edge60.split.split.loopexit, label %.lr.ph59, !llvm.loop !129

._crit_edge60.split.split.loopexit:               ; preds = %.lr.ph59
  %85 = add i32 %77, %indvars.iv113
  br label %._crit_edge60.split.split

._crit_edge60.split.split:                        ; preds = %._crit_edge60.split.split.loopexit, %.preheader
  %.1.lcssa = phi double [ %.04784, %.preheader ], [ %83, %._crit_edge60.split.split.loopexit ]
  %.149.lcssa = phi i32 [ %.14955, %.preheader ], [ %85, %._crit_edge60.split.split.loopexit ]
  %86 = add nuw nsw i32 %.05080, 1
  %indvars.iv.next114 = add i32 %indvars.iv113, -1
  %indvars.iv.next117 = add i32 %indvars.iv116, -1
  %exitcond118.not = icmp eq i32 %86, %6
  br i1 %exitcond118.not, label %._crit_edge, label %.preheader, !llvm.loop !127

._crit_edge:                                      ; preds = %._crit_edge60.split.split, %._crit_edge60.split.split.us.us, %._crit_edge60.split.us.split.us89, %._crit_edge60.split.us.split.us.us.us, %5
  %.047.lcssa = phi double [ 0.000000e+00, %5 ], [ %.1.lcssa.us.us, %._crit_edge60.split.us.split.us.us.us ], [ %.1.lcssa.us, %._crit_edge60.split.us.split.us89 ], [ %.1.lcssa.us99, %._crit_edge60.split.split.us.us ], [ %.1.lcssa, %._crit_edge60.split.split ]
  ret double %.047.lcssa
}